target datalayout = "e-m:e-p270:32:32-p271:32:32-p272:64:64-i64:64-i128:128-f80:128-n8:16:32:64-S128"
target triple = "x86_64-pc-linux-gnu"

%struct.dt_lib_module_t = type { %struct.dt_action_t, ptr, ptr, ptr, ptr, ptr, ptr, ptr, ptr, ptr, ptr, ptr, ptr, ptr, ptr, ptr, ptr, ptr, ptr, ptr, ptr, ptr, ptr, ptr, ptr, ptr, ptr, ptr, ptr, ptr, ptr, [128 x i8], ptr, ptr, i32, ptr, ptr, ptr, i32 }
%struct.dt_action_t = type { i32, ptr, ptr, ptr, ptr, ptr }

@.str.1 = private unnamed_addr constant [9 x i8] c"_visible\00", align 1

; Function Attrs: nounwind uwtable
define void @dt_lib_set_visible(ptr noundef %0, i32 noundef %1) #0 {
  %3 = alloca ptr, align 8
  %4 = alloca i32, align 4
  %5 = alloca ptr, align 8
  %6 = alloca ptr, align 8
  store ptr %0, ptr %3, align 8, !tbaa !6
  store i32 %1, ptr %4, align 4, !tbaa !62
  call void @llvm.lifetime.start.p0(i64 8, ptr %5) #12
  %7 = load ptr, ptr %3, align 8, !tbaa !6
  %8 = call ptr @_get_lib_view_path(ptr noundef %7, ptr noundef null, ptr noundef @.str.1)
  store ptr %8, ptr %5, align 8, !tbaa !63
  call void @llvm.lifetime.start.p0(i64 8, ptr %6) #12
  %9 = load ptr, ptr %5, align 8, !tbaa !63
  %10 = icmp ne ptr %9, null
  br i1 %10, label %11, label %14

11:                                               ; preds = %2
  %12 = load ptr, ptr %5, align 8, !tbaa !63
  %13 = load i32, ptr %4, align 4, !tbaa !62
  call void @dt_conf_set_bool(ptr noundef %12, i32 noundef %13)
  br label %14

14:                                               ; preds = %11, %2
  %15 = load ptr, ptr %5, align 8, !tbaa !63
  call void @g_free(ptr noundef %15)
  %16 = load ptr, ptr %3, align 8, !tbaa !6
  %17 = getelementptr inbounds nuw %struct.dt_lib_module_t, ptr %16, i32 0, i32 32
  %18 = load ptr, ptr %17, align 8, !tbaa !105
  %19 = icmp ne ptr %18, null
  br i1 %19, label %20, label %45

20:                                               ; preds = %14
  %21 = load ptr, ptr %3, align 8, !tbaa !6
  %22 = getelementptr inbounds nuw %struct.dt_lib_module_t, ptr %21, i32 0, i32 33
  %23 = load ptr, ptr %22, align 8, !tbaa !107
  %24 = icmp ne ptr %23, null
  br i1 %24, label %25, label %29

25:                                               ; preds = %20
  %26 = load ptr, ptr %3, align 8, !tbaa !6
  %27 = getelementptr inbounds nuw %struct.dt_lib_module_t, ptr %26, i32 0, i32 33
  %28 = load ptr, ptr %27, align 8, !tbaa !107
  store ptr %28, ptr %6, align 8, !tbaa !111
  br label %33

29:                                               ; preds = %20
  %30 = load ptr, ptr %3, align 8, !tbaa !6
  %31 = getelementptr inbounds nuw %struct.dt_lib_module_t, ptr %30, i32 0, i32 32
  %32 = load ptr, ptr %31, align 8, !tbaa !105
  store ptr %32, ptr %6, align 8, !tbaa !111
  br label %33

33:                                               ; preds = %29, %25
  %34 = load i32, ptr %4, align 4, !tbaa !62
  %35 = icmp ne i32 %34, 0
  br i1 %35, label %36, label %40

36:                                               ; preds = %33
  %37 = load ptr, ptr %6, align 8, !tbaa !111
  %38 = call i64 @gtk_widget_get_type() #15
  %39 = call ptr @g_type_check_instance_cast(ptr noundef %37, i64 noundef %38)
  call void @gtk_widget_show(ptr noundef %39)
  br label %44

40:                                               ; preds = %33
  %41 = load ptr, ptr %6, align 8, !tbaa !111
  %42 = call i64 @gtk_widget_get_type() #15
  %43 = call ptr @g_type_check_instance_cast(ptr noundef %41, i64 noundef %42)
  call void @gtk_widget_hide(ptr noundef %43)
  br label %44

44:                                               ; preds = %40, %36
  br label %45

45:                                               ; preds = %44, %14
  call void @llvm.lifetime.end.p0(i64 8, ptr %6) #12
  call void @llvm.lifetime.end.p0(i64 8, ptr %5) #12
  ret void
}