; Function Attrs: nounwind uwtable
define void @dt_lib_set_visible(ptr noundef %0, i32 noundef %1) local_unnamed_addr #0 {
  %3 = tail call fastcc ptr @_get_lib_view_path(ptr noundef %0, ptr noundef null, ptr noundef nonnull @.str.1)
  %.not = icmp eq ptr %3, null
  br i1 %.not, label %5, label %4

4:                                                ; preds = %2
  tail call void @dt_conf_set_bool(ptr noundef nonnull %3, i32 noundef %1) #19
  br label %5

5:                                                ; preds = %4, %2
  tail call void @g_free(ptr noundef %3) #19
  %6 = getelementptr inbounds nuw i8, ptr %0, i64 416
  %7 = load ptr, ptr %6, align 8, !tbaa !84
  %.not14 = icmp eq ptr %7, null
  br i1 %.not14, label %15, label %8

8:                                                ; preds = %5
  %9 = getelementptr inbounds nuw i8, ptr %0, i64 424
  %10 = load ptr, ptr %9, align 8, !tbaa !86
  %.not15 = icmp eq ptr %10, null
  %. = select i1 %.not15, ptr %7, ptr %10
  %.not16 = icmp eq i32 %1, 0
  %11 = tail call i64 @gtk_widget_get_type() #23
  %12 = tail call ptr @g_type_check_instance_cast(ptr noundef nonnull %., i64 noundef %11) #19
  br i1 %.not16, label %14, label %13

13:                                               ; preds = %8
  tail call void @gtk_widget_show(ptr noundef %12) #19
  br label %15

14:                                               ; preds = %8
  tail call void @gtk_widget_hide(ptr noundef %12) #19
  br label %15

15:                                               ; preds = %13, %14, %5
  ret void
}